target datalayout = "e-m:e-p270:32:32-p271:32:32-p272:64:64-i64:64-i128:128-f80:128-n8:16:32:64-S128"
target triple = "x86_64-pc-linux-gnu"

@timelib_error_messages = hidden global [10 x ptr] [ptr @.str, ptr @.str.1, ptr @.str.2, ptr @.str.3, ptr @.str.4, ptr @.str.5, ptr @.str.6, ptr @.str.7, ptr @.str.8, ptr @.str.9], align 16
@.str.10 = private unnamed_addr constant [19 x i8] c"Unknown error code\00", align 1

; Function Attrs: nounwind uwtable
define hidden ptr @timelib_get_error_message(i32 noundef %0) #0 {
  %2 = alloca ptr, align 8
  %3 = alloca i32, align 4
  %4 = alloca i32, align 4
  store i32 %0, ptr %3, align 4
  store i32 10, ptr %4, align 4
  %5 = load i32, ptr %3, align 4
  %6 = icmp sge i32 %5, 0
  br i1 %6, label %7, label %16

7:                                                ; preds = %1
  %8 = load i32, ptr %3, align 4
  %9 = load i32, ptr %4, align 4
  %10 = icmp slt i32 %8, %9
  br i1 %10, label %11, label %16

11:                                               ; preds = %7
  %12 = load i32, ptr %3, align 4
  %13 = sext i32 %12 to i64
  %14 = getelementptr inbounds [10 x ptr], ptr @timelib_error_messages, i64 0, i64 %13
  %15 = load ptr, ptr %14, align 8
  store ptr %15, ptr %2, align 8
  br label %17

16:                                               ; preds = %7, %1
  store ptr @.str.10, ptr %2, align 8
  br label %17

17:                                               ; preds = %16, %11
  %18 = load ptr, ptr %2, align 8
  ret ptr %18
}