; Function Attrs: mustprogress nofree norecurse nosync nounwind willreturn memory(read, argmem: none, inaccessiblemem: none) uwtable
define hidden ptr @timelib_get_error_message(i32 noundef %0) local_unnamed_addr #0 {
  %or.cond = icmp ult i32 %0, 10
  br i1 %or.cond, label %2, label %6

2:                                                ; preds = %1
  %3 = zext nneg i32 %0 to i64
  %4 = getelementptr inbounds [10 x ptr], ptr @timelib_error_messages, i64 0, i64 %3
  %5 = load ptr, ptr %4, align 8
  br label %6

6:                                                ; preds = %1, %2
  %.0 = phi ptr [ %5, %2 ], [ @.str.10, %1 ]
  ret ptr %.0
}